target datalayout = "e-m:e-p270:32:32-p271:32:32-p272:64:64-i64:64-i128:128-f80:128-n8:16:32:64-S128"
target triple = "x86_64-pc-linux-gnu"

; Function Attrs: mustprogress nounwind uwtable
define internal noundef i32 @_ZN7meshoptL11decodeVByteERPKh(ptr noundef nonnull align 8 dereferenceable(8) %0) #3 {
  %2 = alloca i32, align 4
  %3 = alloca ptr, align 8
  %4 = alloca i8, align 1
  %5 = alloca i32, align 4
  %6 = alloca i32, align 4
  %7 = alloca i32, align 4
  %8 = alloca i32, align 4
  %9 = alloca i8, align 1
  store ptr %0, ptr %3, align 8, !tbaa !25
  call void @llvm.lifetime.start.p0(i64 1, ptr %4) #4
  %10 = load ptr, ptr %3, align 8, !tbaa !25
  %11 = load ptr, ptr %10, align 8, !tbaa !4
  %12 = getelementptr inbounds nuw i8, ptr %11, i32 1
  store ptr %12, ptr %10, align 8, !tbaa !4
  %13 = load i8, ptr %11, align 1, !tbaa !15
  store i8 %13, ptr %4, align 1, !tbaa !15
  %14 = load i8, ptr %4, align 1, !tbaa !15
  %15 = zext i8 %14 to i32
  %16 = icmp slt i32 %15, 128
  br i1 %16, label %17, label %20

17:                                               ; preds = %1
  %18 = load i8, ptr %4, align 1, !tbaa !15
  %19 = zext i8 %18 to i32
  store i32 %19, ptr %2, align 4
  store i32 1, ptr %5, align 4
  br label %56

20:                                               ; preds = %1
  call void @llvm.lifetime.start.p0(i64 4, ptr %6) #4
  %21 = load i8, ptr %4, align 1, !tbaa !15
  %22 = zext i8 %21 to i32
  %23 = and i32 %22, 127
  store i32 %23, ptr %6, align 4, !tbaa !13
  call void @llvm.lifetime.start.p0(i64 4, ptr %7) #4
  store i32 7, ptr %7, align 4, !tbaa !13
  call void @llvm.lifetime.start.p0(i64 4, ptr %8) #4
  store i32 0, ptr %8, align 4, !tbaa !13
  br label %24

24:                                               ; preds = %50, %20
  %25 = load i32, ptr %8, align 4, !tbaa !13
  %26 = icmp slt i32 %25, 4
  br i1 %26, label %28, label %27

27:                                               ; preds = %24
  store i32 2, ptr %5, align 4
  br label %53

28:                                               ; preds = %24
  call void @llvm.lifetime.start.p0(i64 1, ptr %9) #4
  %29 = load ptr, ptr %3, align 8, !tbaa !25
  %30 = load ptr, ptr %29, align 8, !tbaa !4
  %31 = getelementptr inbounds nuw i8, ptr %30, i32 1
  store ptr %31, ptr %29, align 8, !tbaa !4
  %32 = load i8, ptr %30, align 1, !tbaa !15
  store i8 %32, ptr %9, align 1, !tbaa !15
  %33 = load i8, ptr %9, align 1, !tbaa !15
  %34 = zext i8 %33 to i32
  %35 = and i32 %34, 127
  %36 = load i32, ptr %7, align 4, !tbaa !13
  %37 = shl i32 %35, %36
  %38 = load i32, ptr %6, align 4, !tbaa !13
  %39 = or i32 %38, %37
  store i32 %39, ptr %6, align 4, !tbaa !13
  %40 = load i32, ptr %7, align 4, !tbaa !13
  %41 = add i32 %40, 7
  store i32 %41, ptr %7, align 4, !tbaa !13
  %42 = load i8, ptr %9, align 1, !tbaa !15
  %43 = zext i8 %42 to i32
  %44 = icmp slt i32 %43, 128
  br i1 %44, label %45, label %46

45:                                               ; preds = %28
  store i32 2, ptr %5, align 4
  br label %47

46:                                               ; preds = %28
  store i32 0, ptr %5, align 4
  br label %47

47:                                               ; preds = %46, %45
  call void @llvm.lifetime.end.p0(i64 1, ptr %9) #4
  %48 = load i32, ptr %5, align 4
  switch i32 %48, label %53 [
    i32 0, label %49
  ]

49:                                               ; preds = %47
  br label %50

50:                                               ; preds = %49
  %51 = load i32, ptr %8, align 4, !tbaa !13
  %52 = add nsw i32 %51, 1
  store i32 %52, ptr %8, align 4, !tbaa !13
  br label %24, !llvm.loop !41

53:                                               ; preds = %47, %27
  call void @llvm.lifetime.end.p0(i64 4, ptr %8) #4
  br label %54

54:                                               ; preds = %53
  %55 = load i32, ptr %6, align 4, !tbaa !13
  store i32 %55, ptr %2, align 4
  store i32 1, ptr %5, align 4
  call void @llvm.lifetime.end.p0(i64 4, ptr %7) #4
  call void @llvm.lifetime.end.p0(i64 4, ptr %6) #4
  br label %56

56:                                               ; preds = %54, %17
  call void @llvm.lifetime.end.p0(i64 1, ptr %4) #4
  %57 = load i32, ptr %2, align 4
  ret i32 %57
}

; Function Attrs: mustprogress uwtable
define dso_local i32 @meshopt_decodeIndexSequence(ptr noundef %0, i64 noundef %1, i64 noundef %2, ptr noundef %3, i64 noundef %4) #0 {
  %6 = alloca i32, align 4
  %7 = alloca ptr, align 8
  %8 = alloca i64, align 8
  %9 = alloca i64, align 8
  %10 = alloca ptr, align 8
  %11 = alloca i64, align 8
  %12 = alloca i32, align 4
  %13 = alloca i32, align 4
  %14 = alloca ptr, align 8
  %15 = alloca ptr, align 8
  %16 = alloca [2 x i32], align 4
  %17 = alloca i64, align 8
  %18 = alloca i32, align 4
  %19 = alloca i32, align 4
  %20 = alloca i32, align 4
  %21 = alloca i32, align 4
  store ptr %0, ptr %7, align 8, !tbaa !32
  store i64 %1, ptr %8, align 8, !tbaa !9
  store i64 %2, ptr %9, align 8, !tbaa !9
  store ptr %3, ptr %10, align 8, !tbaa !4
  store i64 %4, ptr %11, align 8, !tbaa !9
  %22 = load i64, ptr %11, align 8, !tbaa !9
  %23 = load i64, ptr %8, align 8, !tbaa !9
  %24 = add i64 1, %23
  %25 = add i64 %24, 4
  %26 = icmp ult i64 %22, %25
  br i1 %26, label %27, label %28

27:                                               ; preds = %5
  store i32 -2, ptr %6, align 4
  br label %111

28:                                               ; preds = %5
  %29 = load ptr, ptr %10, align 8, !tbaa !4
  %30 = getelementptr inbounds i8, ptr %29, i64 0
  %31 = load i8, ptr %30, align 1, !tbaa !15
  %32 = zext i8 %31 to i32
  %33 = and i32 %32, 240
  %34 = icmp ne i32 %33, 208
  br i1 %34, label %35, label %36

35:                                               ; preds = %28
  store i32 -1, ptr %6, align 4
  br label %111

36:                                               ; preds = %28
  call void @llvm.lifetime.start.p0(i64 4, ptr %12) #4
  %37 = load ptr, ptr %10, align 8, !tbaa !4
  %38 = getelementptr inbounds i8, ptr %37, i64 0
  %39 = load i8, ptr %38, align 1, !tbaa !15
  %40 = zext i8 %39 to i32
  %41 = and i32 %40, 15
  store i32 %41, ptr %12, align 4, !tbaa !13
  %42 = load i32, ptr %12, align 4, !tbaa !13
  %43 = icmp sgt i32 %42, 1
  br i1 %43, label %44, label %45

44:                                               ; preds = %36
  store i32 -1, ptr %6, align 4
  store i32 1, ptr %13, align 4
  br label %110

45:                                               ; preds = %36
  call void @llvm.lifetime.start.p0(i64 8, ptr %14) #4
  %46 = load ptr, ptr %10, align 8, !tbaa !4
  %47 = getelementptr inbounds i8, ptr %46, i64 1
  store ptr %47, ptr %14, align 8, !tbaa !4
  call void @llvm.lifetime.start.p0(i64 8, ptr %15) #4
  %48 = load ptr, ptr %10, align 8, !tbaa !4
  %49 = load i64, ptr %11, align 8, !tbaa !9
  %50 = getelementptr inbounds nuw i8, ptr %48, i64 %49
  %51 = getelementptr inbounds i8, ptr %50, i64 -4
  store ptr %51, ptr %15, align 8, !tbaa !4
  call void @llvm.lifetime.start.p0(i64 8, ptr %16) #4
  call void @llvm.memset.p0.i64(ptr align 4 %16, i8 0, i64 8, i1 false)
  call void @llvm.lifetime.start.p0(i64 8, ptr %17) #4
  store i64 0, ptr %17, align 8, !tbaa !9
  br label %52

52:                                               ; preds = %98, %45
  %53 = load i64, ptr %17, align 8, !tbaa !9
  %54 = load i64, ptr %8, align 8, !tbaa !9
  %55 = icmp ult i64 %53, %54
  br i1 %55, label %57, label %56

56:                                               ; preds = %52
  store i32 2, ptr %13, align 4
  br label %101

57:                                               ; preds = %52
  %58 = load ptr, ptr %14, align 8, !tbaa !4
  %59 = load ptr, ptr %15, align 8, !tbaa !4
  %60 = icmp uge ptr %58, %59
  br i1 %60, label %61, label %62

61:                                               ; preds = %57
  store i32 -2, ptr %6, align 4
  store i32 1, ptr %13, align 4
  br label %101

62:                                               ; preds = %57
  call void @llvm.lifetime.start.p0(i64 4, ptr %18) #4
  %63 = call noundef i32 @_ZN7meshoptL11decodeVByteERPKh(ptr noundef nonnull align 8 dereferenceable(8) %14)
  store i32 %63, ptr %18, align 4, !tbaa !13
  call void @llvm.lifetime.start.p0(i64 4, ptr %19) #4
  %64 = load i32, ptr %18, align 4, !tbaa !13
  %65 = and i32 %64, 1
  store i32 %65, ptr %19, align 4, !tbaa !13
  %66 = load i32, ptr %18, align 4, !tbaa !13
  %67 = lshr i32 %66, 1
  store i32 %67, ptr %18, align 4, !tbaa !13
  call void @llvm.lifetime.start.p0(i64 4, ptr %20) #4
  %68 = load i32, ptr %18, align 4, !tbaa !13
  %69 = lshr i32 %68, 1
  %70 = load i32, ptr %18, align 4, !tbaa !13
  %71 = and i32 %70, 1
  %72 = sub nsw i32 0, %71
  %73 = xor i32 %69, %72
  store i32 %73, ptr %20, align 4, !tbaa !13
  call void @llvm.lifetime.start.p0(i64 4, ptr %21) #4
  %74 = load i32, ptr %19, align 4, !tbaa !13
  %75 = zext i32 %74 to i64
  %76 = getelementptr inbounds nuw [2 x i32], ptr %16, i64 0, i64 %75
  %77 = load i32, ptr %76, align 4, !tbaa !13
  %78 = load i32, ptr %20, align 4, !tbaa !13
  %79 = add i32 %77, %78
  store i32 %79, ptr %21, align 4, !tbaa !13
  %80 = load i32, ptr %21, align 4, !tbaa !13
  %81 = load i32, ptr %19, align 4, !tbaa !13
  %82 = zext i32 %81 to i64
  %83 = getelementptr inbounds nuw [2 x i32], ptr %16, i64 0, i64 %82
  store i32 %80, ptr %83, align 4, !tbaa !13
  %84 = load i64, ptr %9, align 8, !tbaa !9
  %85 = icmp eq i64 %84, 2
  br i1 %85, label %86, label %92

86:                                               ; preds = %62
  %87 = load i32, ptr %21, align 4, !tbaa !13
  %88 = trunc i32 %87 to i16
  %89 = load ptr, ptr %7, align 8, !tbaa !32
  %90 = load i64, ptr %17, align 8, !tbaa !9
  %91 = getelementptr inbounds nuw i16, ptr %89, i64 %90
  store i16 %88, ptr %91, align 2, !tbaa !34
  br label %97

92:                                               ; preds = %62
  %93 = load i32, ptr %21, align 4, !tbaa !13
  %94 = load ptr, ptr %7, align 8, !tbaa !32
  %95 = load i64, ptr %17, align 8, !tbaa !9
  %96 = getelementptr inbounds nuw i32, ptr %94, i64 %95
  store i32 %93, ptr %96, align 4, !tbaa !13
  br label %97

97:                                               ; preds = %92, %86
  call void @llvm.lifetime.end.p0(i64 4, ptr %21) #4
  call void @llvm.lifetime.end.p0(i64 4, ptr %20) #4
  call void @llvm.lifetime.end.p0(i64 4, ptr %19) #4
  call void @llvm.lifetime.end.p0(i64 4, ptr %18) #4
  br label %98

98:                                               ; preds = %97
  %99 = load i64, ptr %17, align 8, !tbaa !9
  %100 = add i64 %99, 1
  store i64 %100, ptr %17, align 8, !tbaa !9
  br label %52, !llvm.loop !40

101:                                              ; preds = %61, %56
  call void @llvm.lifetime.end.p0(i64 8, ptr %17) #4
  %102 = load i32, ptr %13, align 4
  switch i32 %102, label %109 [
    i32 2, label %103
  ]

103:                                              ; preds = %101
  %104 = load ptr, ptr %14, align 8, !tbaa !4
  %105 = load ptr, ptr %15, align 8, !tbaa !4
  %106 = icmp ne ptr %104, %105
  br i1 %106, label %107, label %108

107:                                              ; preds = %103
  store i32 -3, ptr %6, align 4
  store i32 1, ptr %13, align 4
  br label %109

108:                                              ; preds = %103
  store i32 0, ptr %6, align 4
  store i32 1, ptr %13, align 4
  br label %109

109:                                              ; preds = %108, %107, %101
  call void @llvm.lifetime.end.p0(i64 8, ptr %16) #4
  call void @llvm.lifetime.end.p0(i64 8, ptr %15) #4
  call void @llvm.lifetime.end.p0(i64 8, ptr %14) #4
  br label %110

110:                                              ; preds = %109, %44
  call void @llvm.lifetime.end.p0(i64 4, ptr %12) #4
  br label %111

111:                                              ; preds = %110, %35, %27
  %112 = load i32, ptr %6, align 4
  ret i32 %112
}