; Function Attrs: mustprogress nofree norecurse nosync nounwind memory(argmem: readwrite) uwtable
define dso_local range(i32 -3, 1) i32 @meshopt_decodeIndexSequence(ptr noundef writeonly captures(none) %0, i64 noundef %1, i64 noundef %2, ptr noundef readonly %3, i64 noundef %4) local_unnamed_addr #7 {
  %6 = alloca [2 x i32], align 8
  %7 = add i64 %1, 5
  %8 = icmp ult i64 %4, %7
  br i1 %8, label %78, label %9

9:                                                ; preds = %5
  %10 = load i8, ptr %3, align 1, !tbaa !8
  %11 = and i8 %10, -2
  %or.cond = icmp eq i8 %11, -48
  br i1 %or.cond, label %12, label %78

12:                                               ; preds = %9
  %13 = getelementptr inbounds nuw i8, ptr %3, i64 1
  %14 = getelementptr inbounds nuw i8, ptr %3, i64 %4
  %15 = getelementptr inbounds i8, ptr %14, i64 -4
  call void @llvm.lifetime.start.p0(i64 8, ptr nonnull %6) #9
  store i64 0, ptr %6, align 8
  %.not3441.not = icmp eq i64 %1, 0
  br i1 %.not3441.not, label %.critedge, label %.lr.ph

.lr.ph:                                           ; preds = %12
  %16 = icmp eq i64 %2, 2
  br i1 %16, label %.lr.ph.split.us, label %.lr.ph.split

.lr.ph.split.us:                                  ; preds = %.lr.ph, %_ZN7meshoptL11decodeVByteERPKh.exit.us
  %.03043.us = phi i64 [ %47, %_ZN7meshoptL11decodeVByteERPKh.exit.us ], [ 0, %.lr.ph ]
  %.03842.us = phi ptr [ %.1.us, %_ZN7meshoptL11decodeVByteERPKh.exit.us ], [ %13, %.lr.ph ]
  %.not33.us = icmp ult ptr %.03842.us, %15
  br i1 %.not33.us, label %17, label %.loopexit

17:                                               ; preds = %.lr.ph.split.us
  %18 = getelementptr inbounds nuw i8, ptr %.03842.us, i64 1
  %19 = load i8, ptr %.03842.us, align 1, !tbaa !8
  %20 = zext i8 %19 to i32
  %21 = icmp sgt i8 %19, -1
  br i1 %21, label %_ZN7meshoptL11decodeVByteERPKh.exit.us, label %22

22:                                               ; preds = %17
  %23 = and i32 %20, 127
  %scevgep49 = getelementptr i8, ptr %.03842.us, i64 5
  br label %24

24:                                               ; preds = %33, %22
  %.01422.i.us = phi i32 [ 0, %22 ], [ %35, %33 ]
  %.01521.i.us = phi i32 [ 7, %22 ], [ %34, %33 ]
  %.01620.i.us = phi i32 [ %23, %22 ], [ %31, %33 ]
  %25 = phi ptr [ %18, %22 ], [ %26, %33 ]
  %26 = getelementptr inbounds nuw i8, ptr %25, i64 1
  %27 = load i8, ptr %25, align 1, !tbaa !8
  %28 = and i8 %27, 127
  %29 = zext nneg i8 %28 to i32
  %30 = shl i32 %29, %.01521.i.us
  %31 = or i32 %30, %.01620.i.us
  %32 = icmp slt i8 %27, 0
  br i1 %32, label %33, label %_ZN7meshoptL11decodeVByteERPKh.exit.us

33:                                               ; preds = %24
  %34 = add nuw nsw i32 %.01521.i.us, 7
  %35 = add nuw nsw i32 %.01422.i.us, 1
  %exitcond.not.i.us = icmp eq i32 %35, 4
  br i1 %exitcond.not.i.us, label %_ZN7meshoptL11decodeVByteERPKh.exit.us, label %24, !llvm.loop !19

_ZN7meshoptL11decodeVByteERPKh.exit.us:           ; preds = %24, %33, %17
  %.1.us = phi ptr [ %18, %17 ], [ %26, %24 ], [ %scevgep49, %33 ]
  %.0.i.us = phi i32 [ %20, %17 ], [ %31, %33 ], [ %31, %24 ]
  %36 = and i32 %.0.i.us, 1
  %37 = lshr i32 %.0.i.us, 2
  %38 = shl i32 %.0.i.us, 30
  %39 = ashr i32 %38, 31
  %40 = xor i32 %39, %37
  %41 = zext nneg i32 %36 to i64
  %42 = getelementptr inbounds nuw [2 x i32], ptr %6, i64 0, i64 %41
  %43 = load i32, ptr %42, align 4, !tbaa !4
  %44 = add i32 %40, %43
  store i32 %44, ptr %42, align 4, !tbaa !4
  %45 = trunc i32 %44 to i16
  %46 = getelementptr inbounds nuw i16, ptr %0, i64 %.03043.us
  store i16 %45, ptr %46, align 2, !tbaa !17
  %47 = add nuw i64 %.03043.us, 1
  %exitcond50.not = icmp eq i64 %47, %1
  br i1 %exitcond50.not, label %.critedge, label %.lr.ph.split.us, !llvm.loop !23

.lr.ph.split:                                     ; preds = %.lr.ph, %_ZN7meshoptL11decodeVByteERPKh.exit
  %.03043 = phi i64 [ %77, %_ZN7meshoptL11decodeVByteERPKh.exit ], [ 0, %.lr.ph ]
  %.03842 = phi ptr [ %.1, %_ZN7meshoptL11decodeVByteERPKh.exit ], [ %13, %.lr.ph ]
  %.not33 = icmp ult ptr %.03842, %15
  br i1 %.not33, label %48, label %.loopexit

48:                                               ; preds = %.lr.ph.split
  %49 = getelementptr inbounds nuw i8, ptr %.03842, i64 1
  %50 = load i8, ptr %.03842, align 1, !tbaa !8
  %51 = zext i8 %50 to i32
  %52 = icmp sgt i8 %50, -1
  br i1 %52, label %_ZN7meshoptL11decodeVByteERPKh.exit, label %53

53:                                               ; preds = %48
  %54 = and i32 %51, 127
  %scevgep = getelementptr i8, ptr %.03842, i64 5
  br label %55

55:                                               ; preds = %64, %53
  %.01422.i = phi i32 [ 0, %53 ], [ %66, %64 ]
  %.01521.i = phi i32 [ 7, %53 ], [ %65, %64 ]
  %.01620.i = phi i32 [ %54, %53 ], [ %62, %64 ]
  %56 = phi ptr [ %49, %53 ], [ %57, %64 ]
  %57 = getelementptr inbounds nuw i8, ptr %56, i64 1
  %58 = load i8, ptr %56, align 1, !tbaa !8
  %59 = and i8 %58, 127
  %60 = zext nneg i8 %59 to i32
  %61 = shl i32 %60, %.01521.i
  %62 = or i32 %61, %.01620.i
  %63 = icmp slt i8 %58, 0
  br i1 %63, label %64, label %_ZN7meshoptL11decodeVByteERPKh.exit

64:                                               ; preds = %55
  %65 = add nuw nsw i32 %.01521.i, 7
  %66 = add nuw nsw i32 %.01422.i, 1
  %exitcond.not.i = icmp eq i32 %66, 4
  br i1 %exitcond.not.i, label %_ZN7meshoptL11decodeVByteERPKh.exit, label %55, !llvm.loop !19

_ZN7meshoptL11decodeVByteERPKh.exit:              ; preds = %55, %64, %48
  %.1 = phi ptr [ %49, %48 ], [ %57, %55 ], [ %scevgep, %64 ]
  %.0.i = phi i32 [ %51, %48 ], [ %62, %64 ], [ %62, %55 ]
  %67 = and i32 %.0.i, 1
  %68 = lshr i32 %.0.i, 2
  %69 = shl i32 %.0.i, 30
  %70 = ashr i32 %69, 31
  %71 = xor i32 %70, %68
  %72 = zext nneg i32 %67 to i64
  %73 = getelementptr inbounds nuw [2 x i32], ptr %6, i64 0, i64 %72
  %74 = load i32, ptr %73, align 4, !tbaa !4
  %75 = add i32 %71, %74
  store i32 %75, ptr %73, align 4, !tbaa !4
  %76 = getelementptr inbounds nuw i32, ptr %0, i64 %.03043
  store i32 %75, ptr %76, align 4, !tbaa !4
  %77 = add nuw i64 %.03043, 1
  %exitcond.not = icmp eq i64 %77, %1
  br i1 %exitcond.not, label %.critedge, label %.lr.ph.split, !llvm.loop !23

.critedge:                                        ; preds = %_ZN7meshoptL11decodeVByteERPKh.exit, %_ZN7meshoptL11decodeVByteERPKh.exit.us, %12
  %.038.lcssa = phi ptr [ %13, %12 ], [ %.1.us, %_ZN7meshoptL11decodeVByteERPKh.exit.us ], [ %.1, %_ZN7meshoptL11decodeVByteERPKh.exit ]
  %.not35 = icmp eq ptr %.038.lcssa, %15
  %. = select i1 %.not35, i32 0, i32 -3
  br label %.loopexit

.loopexit:                                        ; preds = %.lr.ph.split, %.lr.ph.split.us, %.critedge
  %.3 = phi i32 [ %., %.critedge ], [ -2, %.lr.ph.split.us ], [ -2, %.lr.ph.split ]
  call void @llvm.lifetime.end.p0(i64 8, ptr nonnull %6) #9
  br label %78

78:                                               ; preds = %.loopexit, %9, %5
  %.0 = phi i32 [ -2, %5 ], [ -1, %9 ], [ %.3, %.loopexit ]
  ret i32 %.0
}